; Function Attrs: mustprogress uwtable
define hidden void @_ZN4perf8TestBase5SetUpEv(ptr noundef nonnull align 8 captures(none) dereferenceable(248) initializes((96, 120), (124, 136), (224, 228), (232, 233)) %0) unnamed_addr #5 align 2 personality ptr @__gxx_personality_v0 {
  %2 = load i64, ptr @_ZN6cvtest10param_seedE, align 8, !tbaa !64
  %3 = tail call noundef nonnull align 8 dereferenceable(8) ptr @_ZN2cv6theRNGEv()
  store i64 %2, ptr %3, align 8, !tbaa !114
  %4 = load i32, ptr @_ZN6cvtest11testThreadsE, align 4, !tbaa !136
  %. = tail call i32 @llvm.smax.i32(i32 %4, i32 -1)
  tail call void @_ZN2cv13setNumThreadsEi(i32 noundef %.)
  %5 = getelementptr inbounds nuw i8, ptr %0, i64 232
  store i8 0, ptr %5, align 8, !tbaa !19
  %6 = getelementptr inbounds nuw i8, ptr %0, i64 96
  %7 = getelementptr inbounds nuw i8, ptr %0, i64 132
  tail call void @llvm.memset.p0.i64(ptr noundef nonnull align 8 dereferenceable(16) %6, i8 0, i64 16, i1 false)
  store i32 1, ptr %7, align 4, !tbaa !290
  %8 = load i32, ptr @_ZN4perf8TestBase22iterationsLimitDefaultE, align 4, !tbaa !136
  %9 = getelementptr inbounds nuw i8, ptr %0, i64 124
  store i32 %8, ptr %9, align 4, !tbaa !292
  %10 = getelementptr inbounds nuw i8, ptr %0, i64 128
  store i32 -1, ptr %10, align 8, !tbaa !291
  %11 = load i64, ptr @_ZN4perf8TestBase16timeLimitDefaultE, align 8, !tbaa !64
  %12 = getelementptr inbounds nuw i8, ptr %0, i64 112
  store i64 %11, ptr %12, align 8, !tbaa !375
  %13 = getelementptr inbounds nuw i8, ptr %0, i64 72
  %14 = load ptr, ptr %13, align 8, !tbaa !314
  %15 = getelementptr inbounds nuw i8, ptr %0, i64 80
  %16 = load ptr, ptr %15, align 8, !tbaa !313
  %.not.i.i = icmp eq ptr %16, %14
  br i1 %.not.i.i, label %_ZNSt6vectorIlSaIlEE5clearEv.exit, label %17

17:                                               ; preds = %1
  store ptr %14, ptr %15, align 8, !tbaa !313
  br label %_ZNSt6vectorIlSaIlEE5clearEv.exit

_ZNSt6vectorIlSaIlEE5clearEv.exit:                ; preds = %1, %17
  %18 = getelementptr inbounds nuw i8, ptr %0, i64 224
  store i32 4, ptr %18, align 8, !tbaa !340
  ret void
}